target datalayout = "e-m:e-p270:32:32-p271:32:32-p272:64:64-i64:64-i128:128-f80:128-n8:16:32:64-S128"
target triple = "x86_64-pc-linux-gnu"

%struct._object = type { %union.anon, ptr }
%union.anon = type { i64 }
%struct.fileio = type { %struct._object, i32, i8, i8, ptr, ptr, ptr }

@.str.8 = private unnamed_addr constant [4 x i8] c"xb+\00", align 1
@.str.9 = private unnamed_addr constant [3 x i8] c"xb\00", align 1
@.str.10 = private unnamed_addr constant [4 x i8] c"ab+\00", align 1
@.str.11 = private unnamed_addr constant [3 x i8] c"ab\00", align 1
@.str.12 = private unnamed_addr constant [4 x i8] c"rb+\00", align 1
@.str.13 = private unnamed_addr constant [3 x i8] c"rb\00", align 1
@.str.14 = private unnamed_addr constant [3 x i8] c"wb\00", align 1

; Function Attrs: nounwind uwtable
define internal ptr @mode_string(ptr noundef %0) #0 {
  %2 = alloca ptr, align 8
  %3 = alloca ptr, align 8
  store ptr %0, ptr %3, align 8, !tbaa !15
  %4 = load ptr, ptr %3, align 8, !tbaa !15
  %5 = getelementptr inbounds nuw %struct.fileio, ptr %4, i32 0, i32 2
  %6 = load i8, ptr %5, align 4
  %7 = and i8 %6, 1
  %8 = zext i8 %7 to i32
  %9 = icmp ne i32 %8, 0
  br i1 %9, label %10, label %20

10:                                               ; preds = %1
  %11 = load ptr, ptr %3, align 8, !tbaa !15
  %12 = getelementptr inbounds nuw %struct.fileio, ptr %11, i32 0, i32 2
  %13 = load i8, ptr %12, align 4
  %14 = lshr i8 %13, 1
  %15 = and i8 %14, 1
  %16 = zext i8 %15 to i32
  %17 = icmp ne i32 %16, 0
  br i1 %17, label %18, label %19

18:                                               ; preds = %10
  store ptr @.str.8, ptr %2, align 8
  br label %57

19:                                               ; preds = %10
  store ptr @.str.9, ptr %2, align 8
  br label %57

20:                                               ; preds = %1
  %21 = load ptr, ptr %3, align 8, !tbaa !15
  %22 = getelementptr inbounds nuw %struct.fileio, ptr %21, i32 0, i32 2
  %23 = load i8, ptr %22, align 4
  %24 = lshr i8 %23, 3
  %25 = and i8 %24, 1
  %26 = zext i8 %25 to i32
  %27 = icmp ne i32 %26, 0
  br i1 %27, label %28, label %38

28:                                               ; preds = %20
  %29 = load ptr, ptr %3, align 8, !tbaa !15
  %30 = getelementptr inbounds nuw %struct.fileio, ptr %29, i32 0, i32 2
  %31 = load i8, ptr %30, align 4
  %32 = lshr i8 %31, 1
  %33 = and i8 %32, 1
  %34 = zext i8 %33 to i32
  %35 = icmp ne i32 %34, 0
  br i1 %35, label %36, label %37

36:                                               ; preds = %28
  store ptr @.str.10, ptr %2, align 8
  br label %57

37:                                               ; preds = %28
  store ptr @.str.11, ptr %2, align 8
  br label %57

38:                                               ; preds = %20
  %39 = load ptr, ptr %3, align 8, !tbaa !15
  %40 = getelementptr inbounds nuw %struct.fileio, ptr %39, i32 0, i32 2
  %41 = load i8, ptr %40, align 4
  %42 = lshr i8 %41, 1
  %43 = and i8 %42, 1
  %44 = zext i8 %43 to i32
  %45 = icmp ne i32 %44, 0
  br i1 %45, label %46, label %56

46:                                               ; preds = %38
  %47 = load ptr, ptr %3, align 8, !tbaa !15
  %48 = getelementptr inbounds nuw %struct.fileio, ptr %47, i32 0, i32 2
  %49 = load i8, ptr %48, align 4
  %50 = lshr i8 %49, 2
  %51 = and i8 %50, 1
  %52 = zext i8 %51 to i32
  %53 = icmp ne i32 %52, 0
  br i1 %53, label %54, label %55

54:                                               ; preds = %46
  store ptr @.str.12, ptr %2, align 8
  br label %57

55:                                               ; preds = %46
  store ptr @.str.13, ptr %2, align 8
  br label %57

56:                                               ; preds = %38
  store ptr @.str.14, ptr %2, align 8
  br label %57

57:                                               ; preds = %56, %55, %54, %37, %36, %19, %18
  %58 = load ptr, ptr %2, align 8
  ret ptr %58
}

; Function Attrs: nounwind uwtable
define internal ptr @fileio_get_mode(ptr noundef %0, ptr noundef %1) #0 {
  %3 = alloca ptr, align 8
  %4 = alloca ptr, align 8
  %5 = alloca ptr, align 8
  store ptr %0, ptr %3, align 8, !tbaa !4
  store ptr %1, ptr %4, align 8, !tbaa !15
  call void @llvm.lifetime.start.p0(i64 8, ptr %5) #9
  %6 = load ptr, ptr %3, align 8, !tbaa !4
  store ptr %6, ptr %5, align 8, !tbaa !15
  %7 = load ptr, ptr %5, align 8, !tbaa !15
  %8 = call ptr @mode_string(ptr noundef %7)
  %9 = call ptr @PyUnicode_FromString(ptr noundef %8)
  call void @llvm.lifetime.end.p0(i64 8, ptr %5) #9
  ret ptr %9
}