; Function Attrs: nounwind uwtable
define internal ptr @fileio_get_mode(ptr noundef readonly captures(none) %0, ptr readnone captures(none) %1) #1 {
  %3 = getelementptr i8, ptr %0, i64 20
  %.val = load i8, ptr %3, align 4
  %4 = and i8 %.val, 1
  %.not.i = icmp eq i8 %4, 0
  br i1 %.not.i, label %7, label %5

5:                                                ; preds = %2
  %6 = and i8 %.val, 2
  %.not11.i = icmp eq i8 %6, 0
  %.str.9..str.8.i = select i1 %.not11.i, ptr @.str.9, ptr @.str.8
  br label %mode_string.exit

7:                                                ; preds = %2
  %8 = and i8 %.val, 8
  %.not7.i = icmp eq i8 %8, 0
  %9 = and i8 %.val, 2
  %.not8.i = icmp eq i8 %9, 0
  br i1 %.not7.i, label %11, label %10

10:                                               ; preds = %7
  %.str.11..str.10.i = select i1 %.not8.i, ptr @.str.11, ptr @.str.10
  br label %mode_string.exit

11:                                               ; preds = %7
  br i1 %.not8.i, label %mode_string.exit, label %12

12:                                               ; preds = %11
  %13 = and i8 %.val, 4
  %.not9.i = icmp eq i8 %13, 0
  %.str.13..str.12.i = select i1 %.not9.i, ptr @.str.13, ptr @.str.12
  br label %mode_string.exit

mode_string.exit:                                 ; preds = %5, %10, %11, %12
  %.0.i = phi ptr [ %.str.9..str.8.i, %5 ], [ %.str.11..str.10.i, %10 ], [ %.str.13..str.12.i, %12 ], [ @.str.14, %11 ]
  %14 = tail call ptr @PyUnicode_FromString(ptr noundef nonnull %.0.i) #10
  ret ptr %14
}